target datalayout = "e-m:e-p270:32:32-p271:32:32-p272:64:64-i64:64-i128:128-f80:128-n8:16:32:64-S128"
target triple = "x86_64-pc-linux-gnu"

%"struct.Luau::NotNull" = type { ptr }
%"struct.Luau::NotNull.378" = type { ptr }
%"struct.Luau::TypeOnceVisitor.base" = type { %"struct.Luau::GenericTypeVisitor.base" }
%"struct.Luau::GenericTypeVisitor.base" = type <{ ptr, %"class.Luau::DenseHashSet.606", i8, [3 x i8], i32, i32 }>
%"class.Luau::DenseHashSet.606" = type { %"class.Luau::detail::DenseHashTable.607" }
%"class.Luau::detail::DenseHashTable.607" = type <{ ptr, i64, i64, ptr, [8 x i8] }>
%"struct.Luau::GenericTypeVisitor" = type <{ ptr, %"class.Luau::DenseHashSet.606", i8, [3 x i8], i32, i32, [4 x i8] }>
%"struct.Luau::Blocker" = type <{ %"struct.Luau::TypeOnceVisitor.base", [4 x i8], %"struct.Luau::NotNull.378", %"struct.Luau::NotNull", i8, [7 x i8] }>

; Function Attrs: mustprogress nounwind uwtable
define linkonce_odr dso_local void @_ZN4Luau6detail16ItemInterfaceSetIPvE7destroyEPS2_m(ptr noundef %0, i64 noundef %1) #2 comdat align 2 {
  %3 = alloca ptr, align 8
  %4 = alloca i64, align 8
  %5 = alloca i64, align 8
  store ptr %0, ptr %3, align 8, !tbaa !396
  store i64 %1, ptr %4, align 8, !tbaa !117
  call void @llvm.lifetime.start.p0(i64 8, ptr %5) #4
  store i64 0, ptr %5, align 8, !tbaa !117
  br label %6

6:                                                ; preds = %12, %2
  %7 = load i64, ptr %5, align 8, !tbaa !117
  %8 = load i64, ptr %4, align 8, !tbaa !117
  %9 = icmp ult i64 %7, %8
  br i1 %9, label %11, label %10

10:                                               ; preds = %6
  call void @llvm.lifetime.end.p0(i64 8, ptr %5) #4
  br label %15

11:                                               ; preds = %6
  br label %12

12:                                               ; preds = %11
  %13 = load i64, ptr %5, align 8, !tbaa !117
  %14 = add i64 %13, 1
  store i64 %14, ptr %5, align 8, !tbaa !117
  br label %6, !llvm.loop !2109

15:                                               ; preds = %10
  ret void
}

; Function Attrs: mustprogress nounwind uwtable
define linkonce_odr dso_local void @_ZN4Luau6detail14DenseHashTableIPvS2_S2_NS0_16ItemInterfaceSetIS2_EENS_16DenseHashPointerESt8equal_toIS2_EEC2EOS8_(ptr noundef nonnull align 8 dereferenceable(34) %0, ptr noundef nonnull align 8 dereferenceable(34) %1) unnamed_addr #2 comdat align 2 {
  %3 = alloca ptr, align 8
  %4 = alloca ptr, align 8
  store ptr %0, ptr %3, align 8, !tbaa !2102
  store ptr %1, ptr %4, align 8, !tbaa !2102
  %5 = load ptr, ptr %3, align 8
  %6 = getelementptr inbounds nuw %"class.Luau::detail::DenseHashTable.607", ptr %5, i32 0, i32 0
  %7 = load ptr, ptr %4, align 8, !tbaa !2102
  %8 = getelementptr inbounds nuw %"class.Luau::detail::DenseHashTable.607", ptr %7, i32 0, i32 0
  %9 = load ptr, ptr %8, align 8, !tbaa !2104
  store ptr %9, ptr %6, align 8, !tbaa !2104
  %10 = getelementptr inbounds nuw %"class.Luau::detail::DenseHashTable.607", ptr %5, i32 0, i32 1
  %11 = load ptr, ptr %4, align 8, !tbaa !2102
  %12 = getelementptr inbounds nuw %"class.Luau::detail::DenseHashTable.607", ptr %11, i32 0, i32 1
  %13 = load i64, ptr %12, align 8, !tbaa !2105
  store i64 %13, ptr %10, align 8, !tbaa !2105
  %14 = getelementptr inbounds nuw %"class.Luau::detail::DenseHashTable.607", ptr %5, i32 0, i32 2
  %15 = load ptr, ptr %4, align 8, !tbaa !2102
  %16 = getelementptr inbounds nuw %"class.Luau::detail::DenseHashTable.607", ptr %15, i32 0, i32 2
  %17 = load i64, ptr %16, align 8, !tbaa !2106
  store i64 %17, ptr %14, align 8, !tbaa !2106
  %18 = getelementptr inbounds nuw %"class.Luau::detail::DenseHashTable.607", ptr %5, i32 0, i32 3
  %19 = load ptr, ptr %4, align 8, !tbaa !2102
  %20 = getelementptr inbounds nuw %"class.Luau::detail::DenseHashTable.607", ptr %19, i32 0, i32 3
  %21 = load ptr, ptr %20, align 8, !tbaa !2107
  store ptr %21, ptr %18, align 8, !tbaa !2107
  %22 = load ptr, ptr %4, align 8, !tbaa !2102
  %23 = getelementptr inbounds nuw %"class.Luau::detail::DenseHashTable.607", ptr %22, i32 0, i32 0
  store ptr null, ptr %23, align 8, !tbaa !2104
  %24 = load ptr, ptr %4, align 8, !tbaa !2102
  %25 = getelementptr inbounds nuw %"class.Luau::detail::DenseHashTable.607", ptr %24, i32 0, i32 1
  store i64 0, ptr %25, align 8, !tbaa !2105
  %26 = load ptr, ptr %4, align 8, !tbaa !2102
  %27 = getelementptr inbounds nuw %"class.Luau::detail::DenseHashTable.607", ptr %26, i32 0, i32 2
  store i64 0, ptr %27, align 8, !tbaa !2106
  ret void
}

; Function Attrs: mustprogress nounwind uwtable
define linkonce_odr dso_local void @_ZN4Luau6detail16ItemInterfaceSetIPvE4fillEPS2_mRKS2_(ptr noundef %0, i64 noundef %1, ptr noundef nonnull align 8 dereferenceable(8) %2) #2 comdat align 2 {
  %4 = alloca ptr, align 8
  %5 = alloca i64, align 8
  %6 = alloca ptr, align 8
  %7 = alloca i64, align 8
  store ptr %0, ptr %4, align 8, !tbaa !396
  store i64 %1, ptr %5, align 8, !tbaa !117
  store ptr %2, ptr %6, align 8, !tbaa !396
  call void @llvm.lifetime.start.p0(i64 8, ptr %7) #4
  store i64 0, ptr %7, align 8, !tbaa !117
  br label %8

8:                                                ; preds = %19, %3
  %9 = load i64, ptr %7, align 8, !tbaa !117
  %10 = load i64, ptr %5, align 8, !tbaa !117
  %11 = icmp ult i64 %9, %10
  br i1 %11, label %13, label %12

12:                                               ; preds = %8
  call void @llvm.lifetime.end.p0(i64 8, ptr %7) #4
  br label %22

13:                                               ; preds = %8
  %14 = load ptr, ptr %4, align 8, !tbaa !396
  %15 = load i64, ptr %7, align 8, !tbaa !117
  %16 = getelementptr inbounds nuw ptr, ptr %14, i64 %15
  %17 = load ptr, ptr %6, align 8, !tbaa !396
  %18 = load ptr, ptr %17, align 8, !tbaa !89
  store ptr %18, ptr %16, align 8, !tbaa !89
  br label %19

19:                                               ; preds = %13
  %20 = load i64, ptr %7, align 8, !tbaa !117
  %21 = add i64 %20, 1
  store i64 %21, ptr %7, align 8, !tbaa !117
  br label %8, !llvm.loop !2108

22:                                               ; preds = %12
  ret void
}

; Function Attrs: noinline noreturn nounwind uwtable
define linkonce_odr hidden void @__clang_call_terminate(ptr noundef %0) #13 comdat {
  %2 = call ptr @__cxa_begin_catch(ptr %0) #4
  call void @_ZSt9terminatev() #22
  unreachable
}

; Function Attrs: mustprogress uwtable
define linkonce_odr dso_local void @_ZN4Luau6detail14DenseHashTableIPvS2_S2_NS0_16ItemInterfaceSetIS2_EENS_16DenseHashPointerESt8equal_toIS2_EE7destroyEv(ptr noundef nonnull align 8 dereferenceable(34) %0) #6 comdat align 2 {
  %2 = alloca ptr, align 8
  store ptr %0, ptr %2, align 8, !tbaa !2102
  %3 = load ptr, ptr %2, align 8
  %4 = getelementptr inbounds nuw %"class.Luau::detail::DenseHashTable.607", ptr %3, i32 0, i32 0
  %5 = load ptr, ptr %4, align 8, !tbaa !2104
  %6 = getelementptr inbounds nuw %"class.Luau::detail::DenseHashTable.607", ptr %3, i32 0, i32 1
  %7 = load i64, ptr %6, align 8, !tbaa !2105
  call void @_ZN4Luau6detail16ItemInterfaceSetIPvE7destroyEPS2_m(ptr noundef %5, i64 noundef %7)
  %8 = getelementptr inbounds nuw %"class.Luau::detail::DenseHashTable.607", ptr %3, i32 0, i32 0
  %9 = load ptr, ptr %8, align 8, !tbaa !2104
  call void @_ZdlPv(ptr noundef %9) #4
  %10 = getelementptr inbounds nuw %"class.Luau::detail::DenseHashTable.607", ptr %3, i32 0, i32 0
  store ptr null, ptr %10, align 8, !tbaa !2104
  %11 = getelementptr inbounds nuw %"class.Luau::detail::DenseHashTable.607", ptr %3, i32 0, i32 1
  store i64 0, ptr %11, align 8, !tbaa !2105
  ret void
}

; Function Attrs: inlinehint mustprogress uwtable
define linkonce_odr dso_local void @_ZN4Luau12DenseHashSetIPvNS_16DenseHashPointerESt8equal_toIS1_EEC2EOS5_(ptr noundef nonnull align 8 dereferenceable(40) %0, ptr noundef nonnull align 8 dereferenceable(40) %1) unnamed_addr #5 comdat align 2 {
  %3 = alloca ptr, align 8
  %4 = alloca ptr, align 8
  store ptr %0, ptr %3, align 8, !tbaa !2098
  store ptr %1, ptr %4, align 8, !tbaa !2098
  %5 = load ptr, ptr %3, align 8
  %6 = getelementptr inbounds nuw %"class.Luau::DenseHashSet.606", ptr %5, i32 0, i32 0
  %7 = load ptr, ptr %4, align 8, !tbaa !2098
  %8 = getelementptr inbounds nuw %"class.Luau::DenseHashSet.606", ptr %7, i32 0, i32 0
  call void @_ZN4Luau6detail14DenseHashTableIPvS2_S2_NS0_16ItemInterfaceSetIS2_EENS_16DenseHashPointerESt8equal_toIS2_EEC2EOS8_(ptr noundef nonnull align 8 dereferenceable(34) %6, ptr noundef nonnull align 8 dereferenceable(34) %8)
  ret void
}

; Function Attrs: mustprogress uwtable
define linkonce_odr dso_local void @_ZN4Luau6detail14DenseHashTableIPvS2_S2_NS0_16ItemInterfaceSetIS2_EENS_16DenseHashPointerESt8equal_toIS2_EEC2ERKS2_m(ptr noundef nonnull align 8 dereferenceable(34) %0, ptr noundef nonnull align 8 dereferenceable(8) %1, i64 noundef %2) unnamed_addr #6 comdat align 2 {
  %4 = alloca ptr, align 8
  %5 = alloca ptr, align 8
  %6 = alloca i64, align 8
  store ptr %0, ptr %4, align 8, !tbaa !2102
  store ptr %1, ptr %5, align 8, !tbaa !396
  store i64 %2, ptr %6, align 8, !tbaa !117
  %7 = load ptr, ptr %4, align 8
  %8 = getelementptr inbounds nuw %"class.Luau::detail::DenseHashTable.607", ptr %7, i32 0, i32 0
  store ptr null, ptr %8, align 8, !tbaa !2104
  %9 = getelementptr inbounds nuw %"class.Luau::detail::DenseHashTable.607", ptr %7, i32 0, i32 1
  store i64 0, ptr %9, align 8, !tbaa !2105
  %10 = getelementptr inbounds nuw %"class.Luau::detail::DenseHashTable.607", ptr %7, i32 0, i32 2
  store i64 0, ptr %10, align 8, !tbaa !2106
  %11 = getelementptr inbounds nuw %"class.Luau::detail::DenseHashTable.607", ptr %7, i32 0, i32 3
  %12 = load ptr, ptr %5, align 8, !tbaa !396
  %13 = load ptr, ptr %12, align 8, !tbaa !89
  store ptr %13, ptr %11, align 8, !tbaa !2107
  %14 = load i64, ptr %6, align 8, !tbaa !117
  %15 = icmp ne i64 %14, 0
  br i1 %15, label %16, label %27

16:                                               ; preds = %3
  %17 = load i64, ptr %6, align 8, !tbaa !117
  %18 = mul i64 8, %17
  %19 = call noalias noundef nonnull ptr @_Znwm(i64 noundef %18) #27
  %20 = getelementptr inbounds nuw %"class.Luau::detail::DenseHashTable.607", ptr %7, i32 0, i32 0
  store ptr %19, ptr %20, align 8, !tbaa !2104
  %21 = load i64, ptr %6, align 8, !tbaa !117
  %22 = getelementptr inbounds nuw %"class.Luau::detail::DenseHashTable.607", ptr %7, i32 0, i32 1
  store i64 %21, ptr %22, align 8, !tbaa !2105
  %23 = getelementptr inbounds nuw %"class.Luau::detail::DenseHashTable.607", ptr %7, i32 0, i32 0
  %24 = load ptr, ptr %23, align 8, !tbaa !2104
  %25 = load i64, ptr %6, align 8, !tbaa !117
  %26 = load ptr, ptr %5, align 8, !tbaa !396
  call void @_ZN4Luau6detail16ItemInterfaceSetIPvE4fillEPS2_mRKS2_(ptr noundef %24, i64 noundef %25, ptr noundef nonnull align 8 dereferenceable(8) %26)
  br label %27

27:                                               ; preds = %16, %3
  ret void
}

; Function Attrs: mustprogress nounwind uwtable
define linkonce_odr dso_local void @_ZN4Luau6detail14DenseHashTableIPvS2_S2_NS0_16ItemInterfaceSetIS2_EENS_16DenseHashPointerESt8equal_toIS2_EED2Ev(ptr noundef nonnull align 8 dereferenceable(34) %0) unnamed_addr #2 comdat align 2 personality ptr @__gxx_personality_v0 {
  %2 = alloca ptr, align 8
  store ptr %0, ptr %2, align 8, !tbaa !2102
  %3 = load ptr, ptr %2, align 8
  %4 = getelementptr inbounds nuw %"class.Luau::detail::DenseHashTable.607", ptr %3, i32 0, i32 0
  %5 = load ptr, ptr %4, align 8, !tbaa !2104
  %6 = icmp ne ptr %5, null
  br i1 %6, label %7, label %9

7:                                                ; preds = %1
  invoke void @_ZN4Luau6detail14DenseHashTableIPvS2_S2_NS0_16ItemInterfaceSetIS2_EENS_16DenseHashPointerESt8equal_toIS2_EE7destroyEv(ptr noundef nonnull align 8 dereferenceable(34) %3)
          to label %8 unwind label %10

8:                                                ; preds = %7
  br label %9

9:                                                ; preds = %8, %1
  ret void

10:                                               ; preds = %7
  %11 = landingpad { ptr, i32 }
          catch ptr null
  %12 = extractvalue { ptr, i32 } %11, 0
  call void @__clang_call_terminate(ptr %12) #22
  unreachable
}

; Function Attrs: mustprogress uwtable
define linkonce_odr dso_local void @_ZN4Luau18GenericTypeVisitorINS_12DenseHashSetIPvNS_16DenseHashPointerESt8equal_toIS2_EEEEC2ES6_b(ptr noundef nonnull align 8 dereferenceable(60) %0, ptr noundef %1, i1 noundef zeroext %2) unnamed_addr #6 comdat align 2 {
  %4 = alloca ptr, align 8
  %5 = alloca ptr, align 8
  %6 = alloca i8, align 1
  store ptr %0, ptr %4, align 8, !tbaa !933
  store ptr %1, ptr %5, align 8, !tbaa !2098
  %7 = zext i1 %2 to i8
  store i8 %7, ptr %6, align 1, !tbaa !26
  %8 = load ptr, ptr %4, align 8
  store ptr getelementptr inbounds inrange(-16, 272) ({ [36 x ptr] }, ptr @_ZTVN4Luau18GenericTypeVisitorINS_12DenseHashSetIPvNS_16DenseHashPointerESt8equal_toIS2_EEEEE, i32 0, i32 0, i32 2), ptr %8, align 8, !tbaa !444
  %9 = getelementptr inbounds nuw %"struct.Luau::GenericTypeVisitor", ptr %8, i32 0, i32 1
  call void @_ZN4Luau12DenseHashSetIPvNS_16DenseHashPointerESt8equal_toIS1_EEC2EOS5_(ptr noundef nonnull align 8 dereferenceable(40) %9, ptr noundef nonnull align 8 dereferenceable(40) %1)
  %10 = getelementptr inbounds nuw %"struct.Luau::GenericTypeVisitor", ptr %8, i32 0, i32 2
  %11 = load i8, ptr %6, align 1, !tbaa !26, !range !28, !noundef !29
  %12 = trunc i8 %11 to i1
  %13 = zext i1 %12 to i8
  store i8 %13, ptr %10, align 8, !tbaa !935
  %14 = getelementptr inbounds nuw %"struct.Luau::GenericTypeVisitor", ptr %8, i32 0, i32 4
  store i32 0, ptr %14, align 4, !tbaa !2100
  %15 = getelementptr inbounds nuw %"struct.Luau::GenericTypeVisitor", ptr %8, i32 0, i32 5
  store i32 0, ptr %15, align 8, !tbaa !2101
  ret void
}

; Function Attrs: mustprogress uwtable
define linkonce_odr dso_local void @_ZN4Luau12DenseHashSetIPvNS_16DenseHashPointerESt8equal_toIS1_EEC2ERKS1_m(ptr noundef nonnull align 8 dereferenceable(40) %0, ptr noundef nonnull align 8 dereferenceable(8) %1, i64 noundef %2) unnamed_addr #6 comdat align 2 {
  %4 = alloca ptr, align 8
  %5 = alloca ptr, align 8
  %6 = alloca i64, align 8
  store ptr %0, ptr %4, align 8, !tbaa !2098
  store ptr %1, ptr %5, align 8, !tbaa !396
  store i64 %2, ptr %6, align 8, !tbaa !117
  %7 = load ptr, ptr %4, align 8
  %8 = getelementptr inbounds nuw %"class.Luau::DenseHashSet.606", ptr %7, i32 0, i32 0
  %9 = load ptr, ptr %5, align 8, !tbaa !396
  %10 = load i64, ptr %6, align 8, !tbaa !117
  call void @_ZN4Luau6detail14DenseHashTableIPvS2_S2_NS0_16ItemInterfaceSetIS2_EENS_16DenseHashPointerESt8equal_toIS2_EEC2ERKS2_m(ptr noundef nonnull align 8 dereferenceable(34) %8, ptr noundef nonnull align 8 dereferenceable(8) %9, i64 noundef %10)
  ret void
}

; Function Attrs: inlinehint mustprogress nounwind uwtable
define linkonce_odr dso_local void @_ZN4Luau12DenseHashSetIPvNS_16DenseHashPointerESt8equal_toIS1_EED2Ev(ptr noundef nonnull align 8 dereferenceable(40) %0) unnamed_addr #3 comdat align 2 {
  %2 = alloca ptr, align 8
  store ptr %0, ptr %2, align 8, !tbaa !2098
  %3 = load ptr, ptr %2, align 8
  %4 = getelementptr inbounds nuw %"class.Luau::DenseHashSet.606", ptr %3, i32 0, i32 0
  call void @_ZN4Luau6detail14DenseHashTableIPvS2_S2_NS0_16ItemInterfaceSetIS2_EENS_16DenseHashPointerESt8equal_toIS2_EED2Ev(ptr noundef nonnull align 8 dereferenceable(34) %4) #4
  ret void
}

; Function Attrs: mustprogress uwtable
define linkonce_odr dso_local void @_ZN4Luau15TypeOnceVisitorC2Eb(ptr noundef nonnull align 8 dereferenceable(60) %0, i1 noundef zeroext %1) unnamed_addr #6 comdat align 2 personality ptr @__gxx_personality_v0 {
  %3 = alloca ptr, align 8
  %4 = alloca i8, align 1
  %5 = alloca %"class.Luau::DenseHashSet.606", align 8
  %6 = alloca ptr, align 8
  %7 = alloca ptr, align 8
  %8 = alloca i32, align 4
  store ptr %0, ptr %3, align 8, !tbaa !2095
  %9 = zext i1 %1 to i8
  store i8 %9, ptr %4, align 1, !tbaa !26
  %10 = load ptr, ptr %3, align 8
  call void @llvm.lifetime.start.p0(i64 8, ptr %6) #4
  store ptr null, ptr %6, align 8, !tbaa !89
  call void @_ZN4Luau12DenseHashSetIPvNS_16DenseHashPointerESt8equal_toIS1_EEC2ERKS1_m(ptr noundef nonnull align 8 dereferenceable(40) %5, ptr noundef nonnull align 8 dereferenceable(8) %6, i64 noundef 0)
  %11 = load i8, ptr %4, align 1, !tbaa !26, !range !28, !noundef !29
  %12 = trunc i8 %11 to i1
  invoke void @_ZN4Luau18GenericTypeVisitorINS_12DenseHashSetIPvNS_16DenseHashPointerESt8equal_toIS2_EEEEC2ES6_b(ptr noundef nonnull align 8 dereferenceable(60) %10, ptr noundef %5, i1 noundef zeroext %12)
          to label %13 unwind label %14

13:                                               ; preds = %2
  call void @_ZN4Luau12DenseHashSetIPvNS_16DenseHashPointerESt8equal_toIS1_EED2Ev(ptr noundef nonnull align 8 dereferenceable(40) %5) #4
  call void @llvm.lifetime.end.p0(i64 8, ptr %6) #4
  store ptr getelementptr inbounds inrange(-16, 272) ({ [36 x ptr] }, ptr @_ZTVN4Luau15TypeOnceVisitorE, i32 0, i32 0, i32 2), ptr %10, align 8, !tbaa !444
  ret void

14:                                               ; preds = %2
  %15 = landingpad { ptr, i32 }
          cleanup
  %16 = extractvalue { ptr, i32 } %15, 0
  store ptr %16, ptr %7, align 8
  %17 = extractvalue { ptr, i32 } %15, 1
  store i32 %17, ptr %8, align 4
  call void @_ZN4Luau12DenseHashSetIPvNS_16DenseHashPointerESt8equal_toIS1_EED2Ev(ptr noundef nonnull align 8 dereferenceable(40) %5) #4
  call void @llvm.lifetime.end.p0(i64 8, ptr %6) #4
  br label %18

18:                                               ; preds = %14
  %19 = load ptr, ptr %7, align 8
  %20 = load i32, ptr %8, align 4
  %21 = insertvalue { ptr, i32 } poison, ptr %19, 0
  %22 = insertvalue { ptr, i32 } %21, i32 %20, 1
  resume { ptr, i32 } %22
}

; Function Attrs: mustprogress nounwind uwtable
define linkonce_odr dso_local void @_ZN4Luau18GenericTypeVisitorINS_12DenseHashSetIPvNS_16DenseHashPointerESt8equal_toIS2_EEEED2Ev(ptr noundef nonnull align 8 dereferenceable(60) %0) unnamed_addr #2 comdat align 2 {
  %2 = alloca ptr, align 8
  store ptr %0, ptr %2, align 8, !tbaa !933
  %3 = load ptr, ptr %2, align 8
  store ptr getelementptr inbounds inrange(-16, 272) ({ [36 x ptr] }, ptr @_ZTVN4Luau18GenericTypeVisitorINS_12DenseHashSetIPvNS_16DenseHashPointerESt8equal_toIS2_EEEEE, i32 0, i32 0, i32 2), ptr %3, align 8, !tbaa !444
  %4 = getelementptr inbounds nuw %"struct.Luau::GenericTypeVisitor", ptr %3, i32 0, i32 1
  call void @_ZN4Luau12DenseHashSetIPvNS_16DenseHashPointerESt8equal_toIS1_EED2Ev(ptr noundef nonnull align 8 dereferenceable(40) %4) #4
  ret void
}

; Function Attrs: mustprogress uwtable
define linkonce_odr dso_local void @_ZN4Luau7BlockerC2ENS_7NotNullINS_16ConstraintSolverEEENS1_IKNS_10ConstraintEEE(ptr noundef nonnull align 8 dereferenceable(81) %0, ptr %1, ptr %2) unnamed_addr #6 comdat align 2 {
  %4 = alloca %"struct.Luau::NotNull.378", align 8
  %5 = alloca %"struct.Luau::NotNull", align 8
  %6 = alloca ptr, align 8
  %7 = getelementptr inbounds nuw %"struct.Luau::NotNull.378", ptr %4, i32 0, i32 0
  store ptr %1, ptr %7, align 8
  %8 = getelementptr inbounds nuw %"struct.Luau::NotNull", ptr %5, i32 0, i32 0
  store ptr %2, ptr %8, align 8
  store ptr %0, ptr %6, align 8, !tbaa !1159
  %9 = load ptr, ptr %6, align 8
  call void @_ZN4Luau15TypeOnceVisitorC2Eb(ptr noundef nonnull align 8 dereferenceable(60) %9, i1 noundef zeroext false)
  store ptr getelementptr inbounds inrange(-16, 272) ({ [36 x ptr] }, ptr @_ZTVN4Luau7BlockerE, i32 0, i32 0, i32 2), ptr %9, align 8, !tbaa !444
  %10 = getelementptr inbounds nuw %"struct.Luau::Blocker", ptr %9, i32 0, i32 2
  call void @llvm.memcpy.p0.p0.i64(ptr align 8 %10, ptr align 8 %4, i64 8, i1 false), !tbaa.struct !1161
  %11 = getelementptr inbounds nuw %"struct.Luau::Blocker", ptr %9, i32 0, i32 3
  call void @llvm.memcpy.p0.p0.i64(ptr align 8 %11, ptr align 8 %5, i64 8, i1 false), !tbaa.struct !59
  %12 = getelementptr inbounds nuw %"struct.Luau::Blocker", ptr %9, i32 0, i32 4
  store i8 0, ptr %12, align 8, !tbaa !1157
  ret void
}

; Function Attrs: mustprogress nounwind uwtable
define linkonce_odr dso_local void @_ZN4Luau7NotNullINS_16ConstraintSolverEEC2EPS1_(ptr noundef nonnull align 8 dereferenceable(8) %0, ptr noundef %1) unnamed_addr #2 comdat align 2 {
  %3 = alloca ptr, align 8
  %4 = alloca ptr, align 8
  store ptr %0, ptr %3, align 8, !tbaa !493
  store ptr %1, ptr %4, align 8, !tbaa !42
  %5 = load ptr, ptr %3, align 8
  %6 = getelementptr inbounds nuw %"struct.Luau::NotNull.378", ptr %5, i32 0, i32 0
  %7 = load ptr, ptr %4, align 8, !tbaa !42
  store ptr %7, ptr %6, align 8, !tbaa !495
  ret void
}

; Function Attrs: mustprogress uwtable
define dso_local noundef zeroext i1 @_ZN4Luau16ConstraintSolver19blockOnPendingTypesEPKNS_11TypePackVarENS_7NotNullIKNS_10ConstraintEEE(ptr noundef nonnull align 8 dereferenceable(1032) %0, ptr noundef %1, ptr %2) #6 align 2 personality ptr @__gxx_personality_v0 {
  %4 = alloca %"struct.Luau::NotNull", align 8
  %5 = alloca ptr, align 8
  %6 = alloca ptr, align 8
  %7 = alloca %"struct.Luau::Blocker", align 8
  %8 = alloca %"struct.Luau::NotNull.378", align 8
  %9 = alloca %"struct.Luau::NotNull", align 8
  %10 = alloca ptr, align 8
  %11 = alloca i32, align 4
  %12 = getelementptr inbounds nuw %"struct.Luau::NotNull", ptr %4, i32 0, i32 0
  store ptr %2, ptr %12, align 8
  store ptr %0, ptr %5, align 8, !tbaa !42
  store ptr %1, ptr %6, align 8, !tbaa !128
  %13 = load ptr, ptr %5, align 8
  call void @llvm.lifetime.start.p0(i64 88, ptr %7) #4
  call void @_ZN4Luau7NotNullINS_16ConstraintSolverEEC2EPS1_(ptr noundef nonnull align 8 dereferenceable(8) %8, ptr noundef %13)
  call void @llvm.memcpy.p0.p0.i64(ptr align 8 %9, ptr align 8 %4, i64 8, i1 false), !tbaa.struct !59
  %14 = getelementptr inbounds nuw %"struct.Luau::NotNull.378", ptr %8, i32 0, i32 0
  %15 = load ptr, ptr %14, align 8
  %16 = getelementptr inbounds nuw %"struct.Luau::NotNull", ptr %9, i32 0, i32 0
  %17 = load ptr, ptr %16, align 8
  call void @_ZN4Luau7BlockerC2ENS_7NotNullINS_16ConstraintSolverEEENS1_IKNS_10ConstraintEEE(ptr noundef nonnull align 8 dereferenceable(81) %7, ptr %15, ptr %17)
  %18 = load ptr, ptr %6, align 8, !tbaa !128
  invoke void @_ZN4Luau18GenericTypeVisitorINS_12DenseHashSetIPvNS_16DenseHashPointerESt8equal_toIS2_EEEE8traverseEPKNS_11TypePackVarE(ptr noundef nonnull align 8 dereferenceable(60) %7, ptr noundef %18)
          to label %19 unwind label %24

19:                                               ; preds = %3
  %20 = getelementptr inbounds nuw %"struct.Luau::Blocker", ptr %7, i32 0, i32 4
  %21 = load i8, ptr %20, align 8, !tbaa !1157, !range !28, !noundef !29
  %22 = trunc i8 %21 to i1
  %23 = xor i1 %22, true
  call void @_ZN4Luau18GenericTypeVisitorINS_12DenseHashSetIPvNS_16DenseHashPointerESt8equal_toIS2_EEEED2Ev(ptr noundef nonnull align 8 dereferenceable(81) %7) #4
  call void @llvm.lifetime.end.p0(i64 88, ptr %7) #4
  ret i1 %23

24:                                               ; preds = %3
  %25 = landingpad { ptr, i32 }
          cleanup
  %26 = extractvalue { ptr, i32 } %25, 0
  store ptr %26, ptr %10, align 8
  %27 = extractvalue { ptr, i32 } %25, 1
  store i32 %27, ptr %11, align 4
  call void @_ZN4Luau18GenericTypeVisitorINS_12DenseHashSetIPvNS_16DenseHashPointerESt8equal_toIS2_EEEED2Ev(ptr noundef nonnull align 8 dereferenceable(81) %7) #4
  call void @llvm.lifetime.end.p0(i64 88, ptr %7) #4
  br label %28

28:                                               ; preds = %24
  %29 = load ptr, ptr %10, align 8
  %30 = load i32, ptr %11, align 4
  %31 = insertvalue { ptr, i32 } poison, ptr %29, 0
  %32 = insertvalue { ptr, i32 } %31, i32 %30, 1
  resume { ptr, i32 } %32
}