; Function Attrs: mustprogress uwtable
define dso_local noundef zeroext i1 @_ZN4Luau16ConstraintSolver19blockOnPendingTypesEPKNS_11TypePackVarENS_7NotNullIKNS_10ConstraintEEE(ptr noundef nonnull align 8 dereferenceable(1032) %0, ptr noundef %1, ptr %2) local_unnamed_addr #4 align 2 personality ptr @__gxx_personality_v0 {
  %4 = alloca %"struct.Luau::Blocker", align 8
  call void @llvm.lifetime.start.p0(i64 88, ptr nonnull %4) #34
  %5 = getelementptr inbounds nuw i8, ptr %4, i64 8
  %6 = getelementptr inbounds nuw i8, ptr %4, i64 48
  call void @llvm.memset.p0.i64(ptr noundef nonnull align 8 dereferenceable(32) %5, i8 0, i64 32, i1 false)
  store i8 0, ptr %6, align 8, !tbaa !565
  %7 = getelementptr inbounds nuw i8, ptr %4, i64 52
  store i32 0, ptr %7, align 4, !tbaa !570
  %8 = getelementptr inbounds nuw i8, ptr %4, i64 56
  store i32 0, ptr %8, align 8, !tbaa !571
  store ptr getelementptr inbounds nuw inrange(-16, 272) (i8, ptr @_ZTVN4Luau7BlockerE, i64 16), ptr %4, align 8, !tbaa !163
  %9 = getelementptr inbounds nuw i8, ptr %4, i64 64
  store ptr %0, ptr %9, align 8, !tbaa !979
  %10 = getelementptr inbounds nuw i8, ptr %4, i64 72
  store ptr %2, ptr %10, align 8, !tbaa !81
  %11 = getelementptr inbounds nuw i8, ptr %4, i64 80
  store i8 0, ptr %11, align 8, !tbaa !980
  invoke void @_ZN4Luau18GenericTypeVisitorINS_12DenseHashSetIPvNS_16DenseHashPointerESt8equal_toIS2_EEEE8traverseEPKNS_11TypePackVarE(ptr noundef nonnull align 8 dereferenceable(60) %4, ptr noundef %1)
          to label %12 unwind label %18

12:                                               ; preds = %3
  %13 = load i8, ptr %11, align 8, !tbaa !980, !range !229, !noundef !230
  store ptr getelementptr inbounds nuw inrange(-16, 272) (i8, ptr @_ZTVN4Luau18GenericTypeVisitorINS_12DenseHashSetIPvNS_16DenseHashPointerESt8equal_toIS2_EEEEE, i64 16), ptr %4, align 8, !tbaa !163
  %14 = load ptr, ptr %5, align 8, !tbaa !598
  %.not.i.i.i = icmp eq ptr %14, null
  br i1 %.not.i.i.i, label %_ZN4Luau18GenericTypeVisitorINS_12DenseHashSetIPvNS_16DenseHashPointerESt8equal_toIS2_EEEED2Ev.exit, label %15

15:                                               ; preds = %12
  call void @_ZdlPv(ptr noundef nonnull %14) #34
  br label %_ZN4Luau18GenericTypeVisitorINS_12DenseHashSetIPvNS_16DenseHashPointerESt8equal_toIS2_EEEED2Ev.exit

_ZN4Luau18GenericTypeVisitorINS_12DenseHashSetIPvNS_16DenseHashPointerESt8equal_toIS2_EEEED2Ev.exit: ; preds = %12, %15
  %16 = trunc nuw i8 %13 to i1
  %17 = xor i1 %16, true
  call void @llvm.lifetime.end.p0(i64 88, ptr nonnull %4) #34
  ret i1 %17

18:                                               ; preds = %3
  %19 = landingpad { ptr, i32 }
          cleanup
  store ptr getelementptr inbounds nuw inrange(-16, 272) (i8, ptr @_ZTVN4Luau18GenericTypeVisitorINS_12DenseHashSetIPvNS_16DenseHashPointerESt8equal_toIS2_EEEEE, i64 16), ptr %4, align 8, !tbaa !163
  %20 = load ptr, ptr %5, align 8, !tbaa !598
  %.not.i.i.i4 = icmp eq ptr %20, null
  br i1 %.not.i.i.i4, label %_ZN4Luau18GenericTypeVisitorINS_12DenseHashSetIPvNS_16DenseHashPointerESt8equal_toIS2_EEEED2Ev.exit5, label %21

21:                                               ; preds = %18
  call void @_ZdlPv(ptr noundef nonnull %20) #34
  br label %_ZN4Luau18GenericTypeVisitorINS_12DenseHashSetIPvNS_16DenseHashPointerESt8equal_toIS2_EEEED2Ev.exit5

_ZN4Luau18GenericTypeVisitorINS_12DenseHashSetIPvNS_16DenseHashPointerESt8equal_toIS2_EEEED2Ev.exit5: ; preds = %18, %21
  call void @llvm.lifetime.end.p0(i64 88, ptr nonnull %4) #34
  resume { ptr, i32 } %19
}